; Function Attrs: mustprogress nofree norecurse nosync nounwind willreturn memory(read, inaccessiblemem: none) uwtable
define hidden i64 @_ZNK20G1CommittedRegionMap17next_active_rangeEj(ptr nocapture noundef nonnull readonly align 8 dereferenceable(64) %0, i32 noundef %1) local_unnamed_addr #4 align 2 {
  %3 = getelementptr inbounds i8, ptr %0, i64 8
  %4 = zext i32 %1 to i64
  %5 = getelementptr inbounds i8, ptr %0, i64 16
  %6 = load i64, ptr %5, align 8
  %7 = icmp ugt i64 %6, %4
  br i1 %7, label %8, label %.loopexit.i.i.i

8:                                                ; preds = %2
  %9 = lshr i64 %4, 6
  %10 = load ptr, ptr %3, align 8
  %11 = getelementptr inbounds i64, ptr %10, i64 %9
  %12 = load i64, ptr %11, align 8
  %13 = and i64 %4, 63
  %14 = lshr i64 %12, %13
  %15 = and i64 %14, 1
  %.not.i.i.i = icmp eq i64 %15, 0
  br i1 %.not.i.i.i, label %16, label %_ZNK6BitMap18find_first_set_bitEm.exit

16:                                               ; preds = %8
  %17 = icmp eq i64 %14, 0
  br i1 %17, label %18, label %29

18:                                               ; preds = %16
  %19 = add i64 %6, 63
  %20 = lshr i64 %19, 6
  br label %21

21:                                               ; preds = %24, %18
  %.025.i.i.i = phi i64 [ %9, %18 ], [ %22, %24 ]
  %22 = add nuw nsw i64 %.025.i.i.i, 1
  %23 = icmp ult i64 %22, %20
  br i1 %23, label %24, label %.loopexit.i.i.i

24:                                               ; preds = %21
  %25 = getelementptr inbounds i64, ptr %10, i64 %22
  %26 = load i64, ptr %25, align 8
  %.not36.i.i.i = icmp eq i64 %26, 0
  br i1 %.not36.i.i.i, label %21, label %27, !llvm.loop !6

27:                                               ; preds = %24
  %28 = shl i64 %22, 6
  br label %29

29:                                               ; preds = %27, %16
  %.1.ph.i.i.i = phi i64 [ %14, %16 ], [ %26, %27 ]
  %.026.ph.i.i.i = phi i64 [ %4, %16 ], [ %28, %27 ]
  %30 = tail call range(i64 0, 65) i64 @llvm.cttz.i64(i64 %.1.ph.i.i.i, i1 true)
  %31 = add nuw i64 %.026.ph.i.i.i, %30
  %32 = icmp ult i64 %31, %6
  br i1 %32, label %_ZNK6BitMap18find_first_set_bitEm.exit, label %.loopexit.i.i.i

.loopexit.i.i.i:                                  ; preds = %21, %29, %2
  br label %_ZNK6BitMap18find_first_set_bitEm.exit

_ZNK6BitMap18find_first_set_bitEm.exit:           ; preds = %8, %29, %.loopexit.i.i.i
  %.0.i.i.i = phi i64 [ %6, %.loopexit.i.i.i ], [ %4, %8 ], [ %31, %29 ]
  %33 = trunc i64 %.0.i.i.i to i32
  %34 = trunc i64 %6 to i32
  %35 = icmp eq i32 %34, %33
  br i1 %35, label %_ZNK6BitMap18find_first_set_bitEm.exit._ZNK6BitMap20find_first_clear_bitEm.exit_crit_edge, label %36

_ZNK6BitMap18find_first_set_bitEm.exit._ZNK6BitMap20find_first_clear_bitEm.exit_crit_edge: ; preds = %_ZNK6BitMap18find_first_set_bitEm.exit
  %.pre = and i64 %6, 4294967295
  br label %_ZNK6BitMap20find_first_clear_bitEm.exit

36:                                               ; preds = %_ZNK6BitMap18find_first_set_bitEm.exit
  %37 = and i64 %.0.i.i.i, 4294967295
  %38 = icmp ugt i64 %6, %37
  br i1 %38, label %39, label %.loopexit.i.i.i7

39:                                               ; preds = %36
  %40 = lshr i64 %37, 6
  %41 = load ptr, ptr %3, align 8
  %42 = getelementptr inbounds i64, ptr %41, i64 %40
  %43 = load i64, ptr %42, align 8
  %44 = xor i64 %43, -1
  %45 = and i64 %.0.i.i.i, 63
  %46 = lshr i64 %44, %45
  %47 = and i64 %46, 1
  %.not.i.i.i9 = icmp eq i64 %47, 0
  br i1 %.not.i.i.i9, label %48, label %_ZNK6BitMap20find_first_clear_bitEm.exit

48:                                               ; preds = %39
  %49 = icmp eq i64 %46, 0
  br i1 %49, label %50, label %62

50:                                               ; preds = %48
  %51 = add i64 %6, 63
  %52 = lshr i64 %51, 6
  br label %53

53:                                               ; preds = %56, %50
  %.025.i.i.i12 = phi i64 [ %40, %50 ], [ %54, %56 ]
  %54 = add nuw nsw i64 %.025.i.i.i12, 1
  %55 = icmp ult i64 %54, %52
  br i1 %55, label %56, label %.loopexit.i.i.i7

56:                                               ; preds = %53
  %57 = getelementptr inbounds i64, ptr %41, i64 %54
  %58 = load i64, ptr %57, align 8
  %.not36.i.i.i13 = icmp eq i64 %58, -1
  br i1 %.not36.i.i.i13, label %53, label %59, !llvm.loop !8

59:                                               ; preds = %56
  %60 = xor i64 %58, -1
  %61 = shl i64 %54, 6
  br label %62

62:                                               ; preds = %59, %48
  %.1.ph.i.i.i10 = phi i64 [ %46, %48 ], [ %60, %59 ]
  %.026.ph.i.i.i11 = phi i64 [ %37, %48 ], [ %61, %59 ]
  %63 = tail call range(i64 0, 65) i64 @llvm.cttz.i64(i64 %.1.ph.i.i.i10, i1 true)
  %64 = add nuw i64 %.026.ph.i.i.i11, %63
  %65 = icmp ult i64 %64, %6
  br i1 %65, label %_ZNK6BitMap20find_first_clear_bitEm.exit, label %.loopexit.i.i.i7

.loopexit.i.i.i7:                                 ; preds = %53, %62, %36
  br label %_ZNK6BitMap20find_first_clear_bitEm.exit

_ZNK6BitMap20find_first_clear_bitEm.exit:         ; preds = %_ZNK6BitMap18find_first_set_bitEm.exit._ZNK6BitMap20find_first_clear_bitEm.exit_crit_edge, %.loopexit.i.i.i7, %62, %39
  %.sroa.0.0.insert.ext.pre-phi = phi i64 [ %.pre, %_ZNK6BitMap18find_first_set_bitEm.exit._ZNK6BitMap20find_first_clear_bitEm.exit_crit_edge ], [ %37, %.loopexit.i.i.i7 ], [ %37, %62 ], [ %37, %39 ]
  %.sroa.3.0 = phi i64 [ %6, %_ZNK6BitMap18find_first_set_bitEm.exit._ZNK6BitMap20find_first_clear_bitEm.exit_crit_edge ], [ %6, %.loopexit.i.i.i7 ], [ %64, %62 ], [ %37, %39 ]
  %.sroa.3.0.insert.ext = shl i64 %.sroa.3.0, 32
  %.sroa.0.0.insert.insert = or disjoint i64 %.sroa.0.0.insert.ext.pre-phi, %.sroa.3.0.insert.ext
  ret i64 %.sroa.0.0.insert.insert
}